target datalayout = "e-m:e-p270:32:32-p271:32:32-p272:64:64-i64:64-i128:128-f80:128-n8:16:32:64-S128"
target triple = "x86_64-pc-linux-gnu"

%"class.std::__exception_ptr::exception_ptr" = type { ptr }
%"class.tbb::detail::r1::tbb_exception_ptr" = type { %"class.std::__exception_ptr::exception_ptr" }
%"class.tbb::detail::d1::task_group_context" = type { i64, %"struct.std::atomic.4", i8, %"struct.tbb::detail::d1::task_group_context::context_traits", %"struct.std::atomic.6", %"struct.std::atomic.8", %union.anon, ptr, %"struct.tbb::detail::d1::intrusive_list_node", %"struct.std::atomic.9", ptr, i64, [56 x i8] }
%"struct.std::atomic.4" = type { %"struct.std::__atomic_base.5" }
%"struct.std::__atomic_base.5" = type { i32 }
%"struct.tbb::detail::d1::task_group_context::context_traits" = type { i8 }
%"struct.std::atomic.6" = type { %"struct.std::__atomic_base.7" }
%"struct.std::__atomic_base.7" = type { i8 }
%"struct.std::atomic.8" = type { i8 }
%union.anon = type { ptr }
%"struct.tbb::detail::d1::intrusive_list_node" = type { ptr, ptr }
%"struct.std::atomic.9" = type { %"struct.std::__atomic_base.10" }
%"struct.std::__atomic_base.10" = type { ptr }

@__itt_stack_caller_destroy_ptr__3_0 = external global ptr, align 8

; Function Attrs: inlinehint mustprogress nounwind sspstrong uwtable
define linkonce_odr void @_ZNSt15__exception_ptr13exception_ptrD2Ev(ptr noundef nonnull align 8 dereferenceable(8) %0) unnamed_addr #5 comdat align 2 {
  %2 = alloca ptr, align 8
  store ptr %0, ptr %2, align 8, !tbaa !8
  %3 = load ptr, ptr %2, align 8
  %4 = getelementptr inbounds nuw %"class.std::__exception_ptr::exception_ptr", ptr %3, i32 0, i32 0
  %5 = load ptr, ptr %4, align 8, !tbaa !10
  %6 = icmp ne ptr %5, null
  br i1 %6, label %7, label %8

7:                                                ; preds = %1
  call void @_ZNSt15__exception_ptr13exception_ptr10_M_releaseEv(ptr noundef nonnull align 8 dereferenceable(8) %3) #12
  br label %8

8:                                                ; preds = %7, %1
  ret void
}

; Function Attrs: mustprogress nounwind sspstrong uwtable
define linkonce_odr noundef i32 @_ZStanSt12memory_orderSt23__memory_order_modifier(i32 noundef %0, i32 noundef %1) #1 comdat {
  %3 = alloca i32, align 4
  %4 = alloca i32, align 4
  store i32 %0, ptr %3, align 4, !tbaa !54
  store i32 %1, ptr %4, align 4, !tbaa !146
  %5 = load i32, ptr %3, align 4, !tbaa !54
  %6 = load i32, ptr %4, align 4, !tbaa !146
  %7 = and i32 %5, %6
  ret i32 %7
}

; Function Attrs: inlinehint mustprogress nounwind sspstrong uwtable
define linkonce_odr void @_ZN3tbb6detail2r117tbb_exception_ptrD2Ev(ptr noundef nonnull align 8 dereferenceable(8) %0) unnamed_addr #5 comdat align 2 {
  %2 = alloca ptr, align 8
  store ptr %0, ptr %2, align 8, !tbaa !3
  %3 = load ptr, ptr %2, align 8
  %4 = getelementptr inbounds nuw %"class.tbb::detail::r1::tbb_exception_ptr", ptr %3, i32 0, i32 0
  call void @_ZNSt15__exception_ptr13exception_ptrD2Ev(ptr noundef nonnull align 8 dereferenceable(8) %4) #12
  ret void
}

; Function Attrs: alwaysinline mustprogress nounwind sspstrong uwtable
define linkonce_odr noundef ptr @_ZNKSt13__atomic_baseIPN3tbb6detail2r117tbb_exception_ptrEE4loadESt12memory_order(ptr noundef nonnull align 8 dereferenceable(8) %0, i32 noundef %1) #8 comdat align 2 {
  %3 = alloca ptr, align 8
  %4 = alloca i32, align 4
  %5 = alloca i32, align 4
  %6 = alloca ptr, align 8
  store ptr %0, ptr %3, align 8, !tbaa !194
  store i32 %1, ptr %4, align 4, !tbaa !54
  %7 = load ptr, ptr %3, align 8
  call void @llvm.lifetime.start.p0(i64 4, ptr %5) #12
  %8 = load i32, ptr %4, align 4, !tbaa !54
  %9 = call noundef i32 @_ZStanSt12memory_orderSt23__memory_order_modifier(i32 noundef %8, i32 noundef 65535)
  store i32 %9, ptr %5, align 4, !tbaa !54
  br label %10

10:                                               ; preds = %2
  br label %11

11:                                               ; preds = %10
  br label %12

12:                                               ; preds = %11
  br label %13

13:                                               ; preds = %12
  br label %14

14:                                               ; preds = %13
  br label %15

15:                                               ; preds = %14
  %16 = getelementptr inbounds nuw %"struct.std::__atomic_base.10", ptr %7, i32 0, i32 0
  %17 = load i32, ptr %4, align 4, !tbaa !54
  switch i32 %17, label %18 [
    i32 1, label %20
    i32 2, label %20
    i32 5, label %22
  ]

18:                                               ; preds = %15
  %19 = load atomic i64, ptr %16 monotonic, align 8
  store i64 %19, ptr %6, align 8
  br label %24

20:                                               ; preds = %15, %15
  %21 = load atomic i64, ptr %16 acquire, align 8
  store i64 %21, ptr %6, align 8
  br label %24

22:                                               ; preds = %15
  %23 = load atomic i64, ptr %16 seq_cst, align 8
  store i64 %23, ptr %6, align 8
  br label %24

24:                                               ; preds = %22, %20, %18
  %25 = load ptr, ptr %6, align 8, !tbaa !3
  call void @llvm.lifetime.end.p0(i64 4, ptr %5) #12
  ret ptr %25
}

; Function Attrs: mustprogress nounwind sspstrong uwtable
define linkonce_odr void @_ZNSt6atomicIN3tbb6detail2d118task_group_context5stateEE5storeES4_St12memory_order(ptr noundef nonnull align 1 dereferenceable(1) %0, i8 noundef zeroext %1, i32 noundef %2) #1 comdat align 2 {
  %4 = alloca ptr, align 8
  %5 = alloca i8, align 1
  %6 = alloca i32, align 4
  store ptr %0, ptr %4, align 8, !tbaa !64
  store i8 %1, ptr %5, align 1, !tbaa !66
  store i32 %2, ptr %6, align 4, !tbaa !54
  %7 = load ptr, ptr %4, align 8
  %8 = getelementptr inbounds nuw %"struct.std::atomic.8", ptr %7, i32 0, i32 0
  %9 = load i32, ptr %6, align 4, !tbaa !54
  switch i32 %9, label %10 [
    i32 3, label %12
    i32 5, label %14
  ]

10:                                               ; preds = %3
  %11 = load i8, ptr %5, align 1
  store atomic i8 %11, ptr %8 monotonic, align 1
  br label %16

12:                                               ; preds = %3
  %13 = load i8, ptr %5, align 1
  store atomic i8 %13, ptr %8 release, align 1
  br label %16

14:                                               ; preds = %3
  %15 = load i8, ptr %5, align 1
  store atomic i8 %15, ptr %8 seq_cst, align 1
  br label %16

16:                                               ; preds = %14, %12, %10
  ret void
}

; Function Attrs: inlinehint mustprogress nounwind sspstrong uwtable
define linkonce_odr void @_ZN3tbb6detail2d014poison_pointerIPvEEvRT_(ptr noundef nonnull align 8 dereferenceable(8) %0) #5 comdat {
  %2 = alloca ptr, align 8
  store ptr %0, ptr %2, align 8, !tbaa !63
  ret void
}

; Function Attrs: inlinehint mustprogress nounwind sspstrong uwtable
define linkonce_odr void @_ZN3tbb6detail2d014poison_pointerISt6atomicIPNS0_2r117tbb_exception_ptrEEEEvRT_(ptr noundef nonnull align 8 dereferenceable(8) %0) #5 comdat {
  %2 = alloca ptr, align 8
  store ptr %0, ptr %2, align 8, !tbaa !52
  ret void
}

; Function Attrs: inlinehint mustprogress nounwind sspstrong uwtable
define linkonce_odr void @_ZN3tbb6detail2d014poison_pointerIPNS0_2d119intrusive_list_nodeEEEvRT_(ptr noundef nonnull align 8 dereferenceable(8) %0) #5 comdat {
  %2 = alloca ptr, align 8
  store ptr %0, ptr %2, align 8, !tbaa !61
  ret void
}

; Function Attrs: inlinehint mustprogress nounwind sspstrong uwtable
define linkonce_odr void @_ZN3tbb6detail2d014poison_pointerIPNS0_2r112context_listEEEvRT_(ptr noundef nonnull align 8 dereferenceable(8) %0) #5 comdat {
  %2 = alloca ptr, align 8
  store ptr %0, ptr %2, align 8, !tbaa !59
  ret void
}

; Function Attrs: inlinehint mustprogress nounwind sspstrong uwtable
define linkonce_odr void @_ZN3tbb6detail2d014poison_pointerIPNS0_2d118task_group_contextEEEvRT_(ptr noundef nonnull align 8 dereferenceable(8) %0) #5 comdat {
  %2 = alloca ptr, align 8
  store ptr %0, ptr %2, align 8, !tbaa !56
  ret void
}

; Function Attrs: mustprogress nounwind sspstrong uwtable
define void @_ZN3tbb6detail2r117tbb_exception_ptr7destroyEv(ptr noundef nonnull align 8 dereferenceable(8) %0) #1 align 2 personality ptr @__gxx_personality_v0 {
  %2 = alloca ptr, align 8
  store ptr %0, ptr %2, align 8, !tbaa !3
  %3 = load ptr, ptr %2, align 8
  call void @_ZN3tbb6detail2r117tbb_exception_ptrD2Ev(ptr noundef nonnull align 8 dereferenceable(8) %3) #12
  invoke void @_ZN3tbb6detail2r117deallocate_memoryEPv(ptr noundef %3)
          to label %4 unwind label %5

4:                                                ; preds = %1
  ret void

5:                                                ; preds = %1
  %6 = landingpad { ptr, i32 }
          catch ptr null
  %7 = extractvalue { ptr, i32 } %6, 0
  call void @__clang_call_terminate(ptr %7) #13
  unreachable
}

; Function Attrs: mustprogress nounwind sspstrong uwtable
define linkonce_odr noundef ptr @_ZNKSt6atomicIPN3tbb6detail2r117tbb_exception_ptrEE4loadESt12memory_order(ptr noundef nonnull align 8 dereferenceable(8) %0, i32 noundef %1) #1 comdat align 2 {
  %3 = alloca ptr, align 8
  %4 = alloca i32, align 4
  store ptr %0, ptr %3, align 8, !tbaa !52
  store i32 %1, ptr %4, align 4, !tbaa !54
  %5 = load ptr, ptr %3, align 8
  %6 = getelementptr inbounds nuw %"struct.std::atomic.9", ptr %5, i32 0, i32 0
  %7 = load i32, ptr %4, align 4, !tbaa !54
  %8 = call noundef ptr @_ZNKSt13__atomic_baseIPN3tbb6detail2r117tbb_exception_ptrEE4loadESt12memory_order(ptr noundef nonnull align 8 dereferenceable(8) %6, i32 noundef %7) #12
  ret ptr %8
}

; Function Attrs: mustprogress sspstrong uwtable
define void @_ZN3tbb6detail2r123task_group_context_impl7destroyERNS0_2d118task_group_contextE(ptr noundef nonnull align 8 dereferenceable(128) %0) #6 align 2 {
  %2 = alloca ptr, align 8
  %3 = alloca ptr, align 8
  %4 = alloca ptr, align 8
  store ptr %0, ptr %2, align 8, !tbaa !16
  %5 = load ptr, ptr %2, align 8, !tbaa !16
  %6 = getelementptr inbounds nuw %"class.tbb::detail::d1::task_group_context", ptr %5, i32 0, i32 7
  %7 = load ptr, ptr %6, align 8, !tbaa !18
  %8 = icmp ne ptr %7, null
  br i1 %8, label %9, label %15

9:                                                ; preds = %1
  %10 = load ptr, ptr %2, align 8, !tbaa !16
  %11 = getelementptr inbounds nuw %"class.tbb::detail::d1::task_group_context", ptr %10, i32 0, i32 7
  %12 = load ptr, ptr %11, align 8, !tbaa !18
  %13 = load ptr, ptr %2, align 8, !tbaa !16
  %14 = getelementptr inbounds nuw %"class.tbb::detail::d1::task_group_context", ptr %13, i32 0, i32 8
  call void @_ZN3tbb6detail2r112context_list6removeERNS0_2d119intrusive_list_nodeE(ptr noundef nonnull align 8 dereferenceable(41) %12, ptr noundef nonnull align 8 dereferenceable(16) %14)
  br label %15

15:                                               ; preds = %9, %1
  call void @llvm.lifetime.start.p0(i64 8, ptr %3) #12
  %16 = load ptr, ptr %2, align 8, !tbaa !16
  %17 = getelementptr inbounds nuw %"class.tbb::detail::d1::task_group_context", ptr %16, i32 0, i32 0
  store ptr %17, ptr %3, align 8, !tbaa !36
  call void @llvm.lifetime.start.p0(i64 8, ptr %4) #12
  %18 = load ptr, ptr %2, align 8, !tbaa !16
  %19 = getelementptr inbounds nuw %"class.tbb::detail::d1::task_group_context", ptr %18, i32 0, i32 9
  %20 = call noundef ptr @_ZNKSt6atomicIPN3tbb6detail2r117tbb_exception_ptrEE4loadESt12memory_order(ptr noundef nonnull align 8 dereferenceable(8) %19, i32 noundef 0) #12
  store ptr %20, ptr %4, align 8, !tbaa !3
  %21 = load ptr, ptr %4, align 8, !tbaa !3
  %22 = icmp ne ptr %21, null
  br i1 %22, label %23, label %25

23:                                               ; preds = %15
  %24 = load ptr, ptr %4, align 8, !tbaa !3
  call void @_ZN3tbb6detail2r117tbb_exception_ptr7destroyEv(ptr noundef nonnull align 8 dereferenceable(8) %24) #12
  br label %25

25:                                               ; preds = %23, %15
  %26 = load ptr, ptr %2, align 8, !tbaa !16
  %27 = getelementptr inbounds nuw %"class.tbb::detail::d1::task_group_context", ptr %26, i32 0, i32 10
  %28 = load ptr, ptr %27, align 8, !tbaa !38
  %29 = icmp ne ptr %28, null
  br i1 %29, label %30, label %40

30:                                               ; preds = %25
  %31 = load ptr, ptr @__itt_stack_caller_destroy_ptr__3_0, align 8, !tbaa !39
  %32 = icmp ne ptr %31, null
  br i1 %32, label %34, label %33

33:                                               ; preds = %30
  br label %39

34:                                               ; preds = %30
  %35 = load ptr, ptr @__itt_stack_caller_destroy_ptr__3_0, align 8, !tbaa !39
  %36 = load ptr, ptr %2, align 8, !tbaa !16
  %37 = getelementptr inbounds nuw %"class.tbb::detail::d1::task_group_context", ptr %36, i32 0, i32 10
  %38 = load ptr, ptr %37, align 8, !tbaa !38
  call void %35(ptr noundef %38)
  br label %39

39:                                               ; preds = %34, %33
  br label %41

40:                                               ; preds = %25
  br label %41

41:                                               ; preds = %40, %39
  %42 = load ptr, ptr %2, align 8, !tbaa !16
  %43 = getelementptr inbounds nuw %"class.tbb::detail::d1::task_group_context", ptr %42, i32 0, i32 6
  call void @_ZN3tbb6detail2d014poison_pointerIPNS0_2d118task_group_contextEEEvRT_(ptr noundef nonnull align 8 dereferenceable(8) %43)
  %44 = load ptr, ptr %2, align 8, !tbaa !16
  %45 = getelementptr inbounds nuw %"class.tbb::detail::d1::task_group_context", ptr %44, i32 0, i32 7
  call void @_ZN3tbb6detail2d014poison_pointerIPNS0_2r112context_listEEEvRT_(ptr noundef nonnull align 8 dereferenceable(8) %45)
  %46 = load ptr, ptr %2, align 8, !tbaa !16
  %47 = getelementptr inbounds nuw %"class.tbb::detail::d1::task_group_context", ptr %46, i32 0, i32 8
  %48 = getelementptr inbounds nuw %"struct.tbb::detail::d1::intrusive_list_node", ptr %47, i32 0, i32 1
  call void @_ZN3tbb6detail2d014poison_pointerIPNS0_2d119intrusive_list_nodeEEEvRT_(ptr noundef nonnull align 8 dereferenceable(8) %48)
  %49 = load ptr, ptr %2, align 8, !tbaa !16
  %50 = getelementptr inbounds nuw %"class.tbb::detail::d1::task_group_context", ptr %49, i32 0, i32 8
  %51 = getelementptr inbounds nuw %"struct.tbb::detail::d1::intrusive_list_node", ptr %50, i32 0, i32 0
  call void @_ZN3tbb6detail2d014poison_pointerIPNS0_2d119intrusive_list_nodeEEEvRT_(ptr noundef nonnull align 8 dereferenceable(8) %51)
  %52 = load ptr, ptr %2, align 8, !tbaa !16
  %53 = getelementptr inbounds nuw %"class.tbb::detail::d1::task_group_context", ptr %52, i32 0, i32 9
  call void @_ZN3tbb6detail2d014poison_pointerISt6atomicIPNS0_2r117tbb_exception_ptrEEEEvRT_(ptr noundef nonnull align 8 dereferenceable(8) %53)
  %54 = load ptr, ptr %2, align 8, !tbaa !16
  %55 = getelementptr inbounds nuw %"class.tbb::detail::d1::task_group_context", ptr %54, i32 0, i32 10
  call void @_ZN3tbb6detail2d014poison_pointerIPvEEvRT_(ptr noundef nonnull align 8 dereferenceable(8) %55)
  %56 = load ptr, ptr %2, align 8, !tbaa !16
  %57 = getelementptr inbounds nuw %"class.tbb::detail::d1::task_group_context", ptr %56, i32 0, i32 5
  call void @_ZNSt6atomicIN3tbb6detail2d118task_group_context5stateEE5storeES4_St12memory_order(ptr noundef nonnull align 1 dereferenceable(1) %57, i8 noundef zeroext 4, i32 noundef 3) #12
  call void @llvm.lifetime.end.p0(i64 8, ptr %4) #12
  call void @llvm.lifetime.end.p0(i64 8, ptr %3) #12
  ret void
}