; Function Attrs: mustprogress sspstrong uwtable
define void @_ZN3tbb6detail2r123task_group_context_impl7destroyERNS0_2d118task_group_contextE(ptr noundef nonnull align 8 dereferenceable(128) %0) local_unnamed_addr #8 align 2 personality ptr @__gxx_personality_v0 {
  %2 = getelementptr inbounds nuw i8, ptr %0, i64 24
  %3 = load ptr, ptr %2, align 8, !tbaa !12
  %.not = icmp eq ptr %3, null
  br i1 %.not, label %6, label %4

4:                                                ; preds = %1
  %5 = getelementptr inbounds nuw i8, ptr %0, i64 32
  tail call void @_ZN3tbb6detail2r112context_list6removeERNS0_2d119intrusive_list_nodeE(ptr noundef nonnull align 8 dereferenceable(41) %3, ptr noundef nonnull align 8 dereferenceable(16) %5)
  br label %6

6:                                                ; preds = %4, %1
  %7 = getelementptr inbounds nuw i8, ptr %0, i64 48
  %8 = load atomic i64, ptr %7 monotonic, align 8
  %.0.i.i = inttoptr i64 %8 to ptr
  %.not20 = icmp eq i64 %8, 0
  br i1 %.not20, label %_ZN3tbb6detail2r117tbb_exception_ptr7destroyEv.exit, label %9

9:                                                ; preds = %6
  %10 = load ptr, ptr %.0.i.i, align 8, !tbaa !3
  %.not.i.i.i = icmp eq ptr %10, null
  br i1 %.not.i.i.i, label %_ZN3tbb6detail2r117tbb_exception_ptrD2Ev.exit.i, label %11

11:                                               ; preds = %9
  tail call void @_ZNSt15__exception_ptr13exception_ptr10_M_releaseEv(ptr noundef nonnull align 8 dereferenceable(8) %.0.i.i) #13
  br label %_ZN3tbb6detail2r117tbb_exception_ptrD2Ev.exit.i

_ZN3tbb6detail2r117tbb_exception_ptrD2Ev.exit.i:  ; preds = %11, %9
  invoke void @_ZN3tbb6detail2r117deallocate_memoryEPv(ptr noundef nonnull align 8 dereferenceable(8) %.0.i.i)
          to label %_ZN3tbb6detail2r117tbb_exception_ptr7destroyEv.exit unwind label %12

12:                                               ; preds = %_ZN3tbb6detail2r117tbb_exception_ptrD2Ev.exit.i
  %13 = landingpad { ptr, i32 }
          catch ptr null
  %14 = extractvalue { ptr, i32 } %13, 0
  tail call void @__clang_call_terminate(ptr %14) #16
  unreachable

_ZN3tbb6detail2r117tbb_exception_ptr7destroyEv.exit: ; preds = %_ZN3tbb6detail2r117tbb_exception_ptrD2Ev.exit.i, %6
  %15 = getelementptr inbounds nuw i8, ptr %0, i64 56
  %16 = load ptr, ptr %15, align 8, !tbaa !31
  %17 = icmp ne ptr %16, null
  %18 = load ptr, ptr @__itt_stack_caller_destroy_ptr__3_0, align 8
  %19 = icmp ne ptr %18, null
  %or.cond = select i1 %17, i1 %19, i1 false
  br i1 %or.cond, label %20, label %21

20:                                               ; preds = %_ZN3tbb6detail2r117tbb_exception_ptr7destroyEv.exit
  tail call void %18(ptr noundef nonnull %16)
  br label %21

21:                                               ; preds = %_ZN3tbb6detail2r117tbb_exception_ptr7destroyEv.exit, %20
  %22 = getelementptr inbounds nuw i8, ptr %0, i64 15
  store atomic i8 4, ptr %22 release, align 1
  ret void
}